
new:     file format elf32-littleriscv


Disassembly of section .text:

00010054 <main>:
   10054:	fc010113          	addi	sp,sp,-64
   10058:	02112e23          	sw	ra,60(sp)
   1005c:	02812c23          	sw	s0,56(sp)
   10060:	04010413          	addi	s0,sp,64
   10064:	06400793          	li	a5,100
   10068:	fef42223          	sw	a5,-28(s0)
   1006c:	ffe00793          	li	a5,-2
   10070:	fef42623          	sw	a5,-20(s0)
   10074:	00100793          	li	a5,1
   10078:	fef42023          	sw	a5,-32(s0)
   1007c:	fe042783          	lw	a5,-32(s0)
   10080:	fec42703          	lw	a4,-20(s0)
   10084:	00ef7f33          	and	t5,t5,a4
   10088:	00ff6f33          	or	t5,t5,a5
   1008c:	fe042423          	sw	zero,-24(s0)
   10090:	0100006f          	j	100a0 <main+0x4c>
   10094:	fe842783          	lw	a5,-24(s0)
   10098:	00178793          	addi	a5,a5,1
   1009c:	fef42423          	sw	a5,-24(s0)
   100a0:	fe842703          	lw	a4,-24(s0)
   100a4:	06300793          	li	a5,99
   100a8:	fee7f6e3          	bgeu	a5,a4,10094 <main+0x40>
   100ac:	fe042023          	sw	zero,-32(s0)
   100b0:	fe042783          	lw	a5,-32(s0)
   100b4:	fec42703          	lw	a4,-20(s0)
   100b8:	00ef7f33          	and	t5,t5,a4
   100bc:	00ff6f33          	or	t5,t5,a5
   100c0:	fe042423          	sw	zero,-24(s0)
   100c4:	002f7793          	andi	a5,t5,2
   100c8:	fcf42e23          	sw	a5,-36(s0)
   100cc:	fdc42703          	lw	a4,-36(s0)
   100d0:	00200793          	li	a5,2
   100d4:	00f70a63          	beq	a4,a5,100e8 <main+0x94>
   100d8:	fe842783          	lw	a5,-24(s0)
   100dc:	00178793          	addi	a5,a5,1
   100e0:	fef42423          	sw	a5,-24(s0)
   100e4:	f91ff06f          	j	10074 <main+0x20>
   100e8:	fc042c23          	sw	zero,-40(s0)
   100ec:	ff400793          	li	a5,-12
   100f0:	fef42623          	sw	a5,-20(s0)
   100f4:	fd842783          	lw	a5,-40(s0)
   100f8:	fec42703          	lw	a4,-20(s0)
   100fc:	00ef7f33          	and	t5,t5,a4
   10100:	00ff6f33          	or	t5,t5,a5
   10104:	fc042a23          	sw	zero,-44(s0)
   10108:	ff800793          	li	a5,-8
   1010c:	fef42623          	sw	a5,-20(s0)
   10110:	fd442783          	lw	a5,-44(s0)
   10114:	fec42703          	lw	a4,-20(s0)
   10118:	00ef7f33          	and	t5,t5,a4
   1011c:	00ff6f33          	or	t5,t5,a5
   10120:	fe842783          	lw	a5,-24(s0)
   10124:	fe442583          	lw	a1,-28(s0)
   10128:	00078513          	mv	a0,a5
   1012c:	0c8000ef          	jal	ra,101f4 <division>
   10130:	00050793          	mv	a5,a0
   10134:	fcf42823          	sw	a5,-48(s0)
   10138:	fd042703          	lw	a4,-48(s0)
   1013c:	00070793          	mv	a5,a4
   10140:	00179793          	slli	a5,a5,0x1
   10144:	00e787b3          	add	a5,a5,a4
   10148:	00279793          	slli	a5,a5,0x2
   1014c:	40e787b3          	sub	a5,a5,a4
   10150:	00279793          	slli	a5,a5,0x2
   10154:	40e787b3          	sub	a5,a5,a4
   10158:	00279793          	slli	a5,a5,0x2
   1015c:	fcf42623          	sw	a5,-52(s0)
   10160:	fcc42703          	lw	a4,-52(s0)
   10164:	0ac00793          	li	a5,172
   10168:	04e7c863          	blt	a5,a4,101b8 <main+0x164>
   1016c:	fcc42783          	lw	a5,-52(s0)
   10170:	0407c463          	bltz	a5,101b8 <main+0x164>
   10174:	00400793          	li	a5,4
   10178:	fcf42c23          	sw	a5,-40(s0)
   1017c:	ff400793          	li	a5,-12
   10180:	fef42623          	sw	a5,-20(s0)
   10184:	fd842783          	lw	a5,-40(s0)
   10188:	fec42703          	lw	a4,-20(s0)
   1018c:	00ef7f33          	and	t5,t5,a4
   10190:	00ff6f33          	or	t5,t5,a5
   10194:	00800793          	li	a5,8
   10198:	fcf42a23          	sw	a5,-44(s0)
   1019c:	ffc00793          	li	a5,-4
   101a0:	fef42623          	sw	a5,-20(s0)
   101a4:	fd442783          	lw	a5,-44(s0)
   101a8:	fec42703          	lw	a4,-20(s0)
   101ac:	00ef7f33          	and	t5,t5,a4
   101b0:	00ff6f33          	or	t5,t5,a5
   101b4:	03c0006f          	j	101f0 <main+0x19c>
   101b8:	fc042c23          	sw	zero,-40(s0)
   101bc:	ff400793          	li	a5,-12
   101c0:	fef42623          	sw	a5,-20(s0)
   101c4:	fd842783          	lw	a5,-40(s0)
   101c8:	fec42703          	lw	a4,-20(s0)
   101cc:	00ef7f33          	and	t5,t5,a4
   101d0:	00ff6f33          	or	t5,t5,a5
   101d4:	fc042a23          	sw	zero,-44(s0)
   101d8:	ff800793          	li	a5,-8
   101dc:	fef42623          	sw	a5,-20(s0)
   101e0:	fd442783          	lw	a5,-44(s0)
   101e4:	fec42703          	lw	a4,-20(s0)
   101e8:	00ef7f33          	and	t5,t5,a4
   101ec:	00ff6f33          	or	t5,t5,a5
   101f0:	e85ff06f          	j	10074 <main+0x20>

000101f4 <division>:
   101f4:	fd010113          	addi	sp,sp,-48
   101f8:	02812623          	sw	s0,44(sp)
   101fc:	03010413          	addi	s0,sp,48
   10200:	fca42e23          	sw	a0,-36(s0)
   10204:	fcb42c23          	sw	a1,-40(s0)
   10208:	fe042623          	sw	zero,-20(s0)
   1020c:	0200006f          	j	1022c <division+0x38>
   10210:	fdc42703          	lw	a4,-36(s0)
   10214:	fd842783          	lw	a5,-40(s0)
   10218:	40f707b3          	sub	a5,a4,a5
   1021c:	fcf42e23          	sw	a5,-36(s0)
   10220:	fec42783          	lw	a5,-20(s0)
   10224:	00178793          	addi	a5,a5,1
   10228:	fef42623          	sw	a5,-20(s0)
   1022c:	fdc42703          	lw	a4,-36(s0)
   10230:	fd842783          	lw	a5,-40(s0)
   10234:	fcf75ee3          	bge	a4,a5,10210 <division+0x1c>
   10238:	fec42783          	lw	a5,-20(s0)
   1023c:	00078513          	mv	a0,a5
   10240:	02c12403          	lw	s0,44(sp)
   10244:	03010113          	addi	sp,sp,48
   10248:	00008067          	ret
